target datalayout = "e-m:e-p270:32:32-p271:32:32-p272:64:64-i64:64-i128:128-f80:128-n8:16:32:64-S128"
target triple = "x86_64-pc-linux-gnu"

@pmix_info_ver_full = dso_local global ptr @.str.19, align 8
@pmix_info_ver_major = dso_local global ptr @.str.20, align 8
@pmix_info_ver_minor = dso_local global ptr @.str.21, align 8
@pmix_info_ver_release = dso_local global ptr @.str.22, align 8
@pmix_info_ver_greek = dso_local global ptr @.str.23, align 8
@pmix_info_ver_repo = dso_local global ptr @.str.24, align 8
@pmix_info_ver_all = dso_local global ptr @.str.17, align 8
@.str.70 = private unnamed_addr constant [3 x i8] c"%d\00", align 1
@.str.81 = private unnamed_addr constant [9 x i8] c"%d.%d.%d\00", align 1
@.str.82 = private unnamed_addr constant [5 x i8] c"%s%s\00", align 1

; Function Attrs: nounwind uwtable
define dso_local ptr @pmix_info_make_version_str(ptr noundef %0, i32 noundef %1, i32 noundef %2, i32 noundef %3, ptr noundef %4, ptr noundef %5) #0 {
  %7 = alloca ptr, align 8
  %8 = alloca ptr, align 8
  %9 = alloca i32, align 4
  %10 = alloca i32, align 4
  %11 = alloca i32, align 4
  %12 = alloca ptr, align 8
  %13 = alloca ptr, align 8
  %14 = alloca ptr, align 8
  %15 = alloca ptr, align 8
  %16 = alloca [8192 x i8], align 16
  %17 = alloca i32, align 4
  store ptr %0, ptr %8, align 8, !tbaa !24
  store i32 %1, ptr %9, align 4, !tbaa !18
  store i32 %2, ptr %10, align 4, !tbaa !18
  store i32 %3, ptr %11, align 4, !tbaa !18
  store ptr %4, ptr %12, align 8, !tbaa !24
  store ptr %5, ptr %13, align 8, !tbaa !24
  call void @llvm.lifetime.start.p0(i64 8, ptr %14) #13
  store ptr null, ptr %14, align 8, !tbaa !24
  call void @llvm.lifetime.start.p0(i64 8, ptr %15) #13
  call void @llvm.lifetime.start.p0(i64 8192, ptr %16) #13
  %18 = getelementptr inbounds [8192 x i8], ptr %16, i64 0, i64 8191
  store i8 0, ptr %18, align 1, !tbaa !54
  %19 = load ptr, ptr %8, align 8, !tbaa !24
  %20 = load ptr, ptr @pmix_info_ver_full, align 8, !tbaa !24
  %21 = call i32 @strcmp(ptr noundef %19, ptr noundef %20) #16
  %22 = icmp eq i32 0, %21
  br i1 %22, label %28, label %23

23:                                               ; preds = %6
  %24 = load ptr, ptr %8, align 8, !tbaa !24
  %25 = load ptr, ptr @pmix_info_ver_all, align 8, !tbaa !24
  %26 = call i32 @strcmp(ptr noundef %24, ptr noundef %25) #16
  %27 = icmp eq i32 0, %26
  br i1 %27, label %28, label %49

28:                                               ; preds = %23, %6
  %29 = getelementptr inbounds [8192 x i8], ptr %16, i64 0, i64 0
  %30 = load i32, ptr %9, align 4, !tbaa !18
  %31 = load i32, ptr %10, align 4, !tbaa !18
  %32 = load i32, ptr %11, align 4, !tbaa !18
  %33 = call i32 (ptr, i64, ptr, ...) @pmix_snprintf(ptr noundef %29, i64 noundef 8191, ptr noundef @.str.81, i32 noundef %30, i32 noundef %31, i32 noundef %32)
  %34 = getelementptr inbounds [8192 x i8], ptr %16, i64 0, i64 0
  %35 = call noalias ptr @strdup(ptr noundef %34) #13
  store ptr %35, ptr %14, align 8, !tbaa !24
  %36 = load ptr, ptr %12, align 8, !tbaa !24
  %37 = icmp ne ptr null, %36
  br i1 %37, label %38, label %48

38:                                               ; preds = %28
  %39 = load ptr, ptr %14, align 8, !tbaa !24
  %40 = load ptr, ptr %12, align 8, !tbaa !24
  %41 = call i32 (ptr, ptr, ...) @asprintf(ptr noundef %15, ptr noundef @.str.82, ptr noundef %39, ptr noundef %40) #13
  %42 = icmp sgt i32 0, %41
  br i1 %42, label %43, label %45

43:                                               ; preds = %38
  %44 = load ptr, ptr %14, align 8, !tbaa !24
  call void @free(ptr noundef %44) #13
  store ptr null, ptr %7, align 8
  store i32 1, ptr %17, align 4
  br label %105

45:                                               ; preds = %38
  %46 = load ptr, ptr %14, align 8, !tbaa !24
  call void @free(ptr noundef %46) #13
  %47 = load ptr, ptr %15, align 8, !tbaa !24
  store ptr %47, ptr %14, align 8, !tbaa !24
  br label %48

48:                                               ; preds = %45, %28
  br label %97

49:                                               ; preds = %23
  %50 = load ptr, ptr %8, align 8, !tbaa !24
  %51 = load ptr, ptr @pmix_info_ver_major, align 8, !tbaa !24
  %52 = call i32 @strcmp(ptr noundef %50, ptr noundef %51) #16
  %53 = icmp eq i32 0, %52
  br i1 %53, label %54, label %58

54:                                               ; preds = %49
  %55 = getelementptr inbounds [8192 x i8], ptr %16, i64 0, i64 0
  %56 = load i32, ptr %9, align 4, !tbaa !18
  %57 = call i32 (ptr, i64, ptr, ...) @pmix_snprintf(ptr noundef %55, i64 noundef 8191, ptr noundef @.str.70, i32 noundef %56)
  br label %96

58:                                               ; preds = %49
  %59 = load ptr, ptr %8, align 8, !tbaa !24
  %60 = load ptr, ptr @pmix_info_ver_minor, align 8, !tbaa !24
  %61 = call i32 @strcmp(ptr noundef %59, ptr noundef %60) #16
  %62 = icmp eq i32 0, %61
  br i1 %62, label %63, label %67

63:                                               ; preds = %58
  %64 = getelementptr inbounds [8192 x i8], ptr %16, i64 0, i64 0
  %65 = load i32, ptr %10, align 4, !tbaa !18
  %66 = call i32 (ptr, i64, ptr, ...) @pmix_snprintf(ptr noundef %64, i64 noundef 8191, ptr noundef @.str.70, i32 noundef %65)
  br label %95

67:                                               ; preds = %58
  %68 = load ptr, ptr %8, align 8, !tbaa !24
  %69 = load ptr, ptr @pmix_info_ver_release, align 8, !tbaa !24
  %70 = call i32 @strcmp(ptr noundef %68, ptr noundef %69) #16
  %71 = icmp eq i32 0, %70
  br i1 %71, label %72, label %76

72:                                               ; preds = %67
  %73 = getelementptr inbounds [8192 x i8], ptr %16, i64 0, i64 0
  %74 = load i32, ptr %11, align 4, !tbaa !18
  %75 = call i32 (ptr, i64, ptr, ...) @pmix_snprintf(ptr noundef %73, i64 noundef 8191, ptr noundef @.str.70, i32 noundef %74)
  br label %94

76:                                               ; preds = %67
  %77 = load ptr, ptr %8, align 8, !tbaa !24
  %78 = load ptr, ptr @pmix_info_ver_greek, align 8, !tbaa !24
  %79 = call i32 @strcmp(ptr noundef %77, ptr noundef %78) #16
  %80 = icmp eq i32 0, %79
  br i1 %80, label %81, label %84

81:                                               ; preds = %76
  %82 = load ptr, ptr %12, align 8, !tbaa !24
  %83 = call noalias ptr @strdup(ptr noundef %82) #13
  store ptr %83, ptr %14, align 8, !tbaa !24
  br label %93

84:                                               ; preds = %76
  %85 = load ptr, ptr %8, align 8, !tbaa !24
  %86 = load ptr, ptr @pmix_info_ver_repo, align 8, !tbaa !24
  %87 = call i32 @strcmp(ptr noundef %85, ptr noundef %86) #16
  %88 = icmp eq i32 0, %87
  br i1 %88, label %89, label %92

89:                                               ; preds = %84
  %90 = load ptr, ptr %13, align 8, !tbaa !24
  %91 = call noalias ptr @strdup(ptr noundef %90) #13
  store ptr %91, ptr %14, align 8, !tbaa !24
  br label %92

92:                                               ; preds = %89, %84
  br label %93

93:                                               ; preds = %92, %81
  br label %94

94:                                               ; preds = %93, %72
  br label %95

95:                                               ; preds = %94, %63
  br label %96

96:                                               ; preds = %95, %54
  br label %97

97:                                               ; preds = %96, %48
  %98 = load ptr, ptr %14, align 8, !tbaa !24
  %99 = icmp eq ptr null, %98
  br i1 %99, label %100, label %103

100:                                              ; preds = %97
  %101 = getelementptr inbounds [8192 x i8], ptr %16, i64 0, i64 0
  %102 = call noalias ptr @strdup(ptr noundef %101) #13
  store ptr %102, ptr %14, align 8, !tbaa !24
  br label %103

103:                                              ; preds = %100, %97
  %104 = load ptr, ptr %14, align 8, !tbaa !24
  store ptr %104, ptr %7, align 8
  store i32 1, ptr %17, align 4
  br label %105

105:                                              ; preds = %103, %43
  call void @llvm.lifetime.end.p0(i64 8192, ptr %16) #13
  call void @llvm.lifetime.end.p0(i64 8, ptr %15) #13
  call void @llvm.lifetime.end.p0(i64 8, ptr %14) #13
  %106 = load ptr, ptr %7, align 8
  ret ptr %106
}