; Function Attrs: nounwind uwtable
define dso_local ptr @pmix_info_make_version_str(ptr noundef readonly captures(none) %0, i32 noundef %1, i32 noundef %2, i32 noundef %3, ptr noundef %4, ptr noundef readonly captures(none) %5) local_unnamed_addr #2 {
  %7 = alloca ptr, align 8
  %8 = alloca [8192 x i8], align 16
  call void @llvm.lifetime.start.p0(i64 8, ptr nonnull %7) #17
  call void @llvm.lifetime.start.p0(i64 8192, ptr nonnull %8) #17
  %9 = getelementptr inbounds nuw i8, ptr %8, i64 8191
  store i8 0, ptr %9, align 1, !tbaa !54
  %10 = load ptr, ptr @pmix_info_ver_full, align 8, !tbaa !29
  %11 = tail call i32 @strcmp(ptr noundef nonnull dereferenceable(1) %0, ptr noundef nonnull dereferenceable(1) %10) #23
  %12 = icmp eq i32 %11, 0
  br i1 %12, label %17, label %13

13:                                               ; preds = %6
  %14 = load ptr, ptr @pmix_info_ver_all, align 8, !tbaa !29
  %15 = tail call i32 @strcmp(ptr noundef nonnull dereferenceable(1) %0, ptr noundef nonnull dereferenceable(1) %14) #23
  %16 = icmp eq i32 %15, 0
  br i1 %16, label %17, label %25

17:                                               ; preds = %13, %6
  %18 = call i32 (ptr, i64, ptr, ...) @pmix_snprintf(ptr noundef nonnull %8, i64 noundef 8191, ptr noundef nonnull @.str.81, i32 noundef %1, i32 noundef %2, i32 noundef %3) #17
  %19 = call noalias ptr @strdup(ptr noundef nonnull %8) #17
  %.not = icmp eq ptr %4, null
  br i1 %.not, label %49, label %20

20:                                               ; preds = %17
  %21 = call i32 (ptr, ptr, ...) @asprintf(ptr noundef nonnull %7, ptr noundef nonnull @.str.82, ptr noundef %19, ptr noundef nonnull %4) #17
  %22 = icmp slt i32 %21, 0
  call void @free(ptr noundef %19) #17
  br i1 %22, label %53, label %23

23:                                               ; preds = %20
  %24 = load ptr, ptr %7, align 8, !tbaa !29
  br label %49

25:                                               ; preds = %13
  %26 = load ptr, ptr @pmix_info_ver_major, align 8, !tbaa !29
  %27 = tail call i32 @strcmp(ptr noundef nonnull dereferenceable(1) %0, ptr noundef nonnull dereferenceable(1) %26) #23
  %28 = icmp eq i32 %27, 0
  br i1 %28, label %.thread.sink.split, label %29

29:                                               ; preds = %25
  %30 = load ptr, ptr @pmix_info_ver_minor, align 8, !tbaa !29
  %31 = tail call i32 @strcmp(ptr noundef nonnull dereferenceable(1) %0, ptr noundef nonnull dereferenceable(1) %30) #23
  %32 = icmp eq i32 %31, 0
  br i1 %32, label %.thread.sink.split, label %33

33:                                               ; preds = %29
  %34 = load ptr, ptr @pmix_info_ver_release, align 8, !tbaa !29
  %35 = tail call i32 @strcmp(ptr noundef nonnull dereferenceable(1) %0, ptr noundef nonnull dereferenceable(1) %34) #23
  %36 = icmp eq i32 %35, 0
  br i1 %36, label %.thread.sink.split, label %37

37:                                               ; preds = %33
  %38 = load ptr, ptr @pmix_info_ver_greek, align 8, !tbaa !29
  %39 = tail call i32 @strcmp(ptr noundef nonnull dereferenceable(1) %0, ptr noundef nonnull dereferenceable(1) %38) #23
  %40 = icmp eq i32 %39, 0
  br i1 %40, label %41, label %43

41:                                               ; preds = %37
  %42 = tail call noalias ptr @strdup(ptr noundef %4) #17
  br label %49

43:                                               ; preds = %37
  %44 = load ptr, ptr @pmix_info_ver_repo, align 8, !tbaa !29
  %45 = tail call i32 @strcmp(ptr noundef nonnull dereferenceable(1) %0, ptr noundef nonnull dereferenceable(1) %44) #23
  %46 = icmp eq i32 %45, 0
  br i1 %46, label %47, label %.thread

47:                                               ; preds = %43
  %48 = tail call noalias ptr @strdup(ptr noundef %5) #17
  br label %49

49:                                               ; preds = %47, %41, %17, %23
  %.0 = phi ptr [ %24, %23 ], [ %19, %17 ], [ %42, %41 ], [ %48, %47 ]
  %50 = icmp eq ptr %.0, null
  br i1 %50, label %.thread, label %53

.thread.sink.split:                               ; preds = %33, %29, %25
  %.sink = phi i32 [ %1, %25 ], [ %2, %29 ], [ %3, %33 ]
  %51 = call i32 (ptr, i64, ptr, ...) @pmix_snprintf(ptr noundef nonnull %8, i64 noundef 8191, ptr noundef nonnull @.str.70, i32 noundef %.sink) #17
  br label %.thread

.thread:                                          ; preds = %.thread.sink.split, %43, %49
  %52 = call noalias ptr @strdup(ptr noundef nonnull %8) #17
  br label %53

53:                                               ; preds = %20, %49, %.thread
  %.022 = phi ptr [ %52, %.thread ], [ %.0, %49 ], [ null, %20 ]
  call void @llvm.lifetime.end.p0(i64 8192, ptr nonnull %8) #17
  call void @llvm.lifetime.end.p0(i64 8, ptr nonnull %7) #17
  ret ptr %.022
}